; Function Attrs: nounwind uwtable
define internal void @recff_bit_nary(ptr noundef %0, ptr noundef %1) #0 {
  %3 = tail call i32 @recff_bit64_nary(ptr noundef %0, ptr noundef %1) #9
  %.not = icmp eq i32 %3, 0
  br i1 %.not, label %4, label %30

4:                                                ; preds = %2
  %5 = getelementptr inbounds nuw i8, ptr %0, i64 160
  %6 = load ptr, ptr %5, align 8, !tbaa !37
  %7 = load i32, ptr %6, align 4, !tbaa !39
  %8 = tail call i32 @lj_opt_narrow_tobit(ptr noundef %0, i32 noundef %7) #9
  %9 = load ptr, ptr %5, align 8, !tbaa !37
  %10 = getelementptr inbounds nuw i8, ptr %9, i64 4
  %11 = load i32, ptr %10, align 4, !tbaa !39
  %.not1819 = icmp eq i32 %11, 0
  br i1 %.not1819, label %._crit_edge, label %.lr.ph

.lr.ph:                                           ; preds = %4
  %12 = getelementptr inbounds nuw i8, ptr %1, i64 16
  %13 = load i32, ptr %12, align 8, !tbaa !29
  %.tr = trunc i32 %13 to i16
  %14 = shl i16 %.tr, 8
  %15 = or disjoint i16 %14, 19
  %16 = getelementptr inbounds nuw i8, ptr %0, i64 184
  %17 = getelementptr inbounds nuw i8, ptr %0, i64 188
  %18 = getelementptr inbounds nuw i8, ptr %0, i64 186
  br label %19

19:                                               ; preds = %.lr.ph, %19
  %20 = phi i32 [ %11, %.lr.ph ], [ %29, %19 ]
  %.021 = phi i32 [ 1, %.lr.ph ], [ %25, %19 ]
  %.01620 = phi i32 [ %8, %.lr.ph ], [ %24, %19 ]
  %21 = trunc i32 %.01620 to i16
  %22 = tail call i32 @lj_opt_narrow_tobit(ptr noundef nonnull %0, i32 noundef %20) #9
  %23 = trunc i32 %22 to i16
  store i16 %15, ptr %17, align 4, !tbaa !4
  store i16 %21, ptr %16, align 8, !tbaa !4
  store i16 %23, ptr %18, align 2, !tbaa !4
  %24 = tail call i32 @lj_opt_fold(ptr noundef nonnull %0) #9
  %25 = add i32 %.021, 1
  %26 = load ptr, ptr %5, align 8, !tbaa !37
  %27 = zext i32 %25 to i64
  %28 = getelementptr inbounds nuw i32, ptr %26, i64 %27
  %29 = load i32, ptr %28, align 4, !tbaa !39
  %.not18 = icmp eq i32 %29, 0
  br i1 %.not18, label %._crit_edge, label %19, !llvm.loop !59

._crit_edge:                                      ; preds = %19, %4
  %.016.lcssa = phi i32 [ %8, %4 ], [ %24, %19 ]
  %.lcssa = phi ptr [ %9, %4 ], [ %26, %19 ]
  store i32 %.016.lcssa, ptr %.lcssa, align 4, !tbaa !39
  br label %30

30:                                               ; preds = %2, %._crit_edge
  ret void
}